target datalayout = "e-m:e-p270:32:32-p271:32:32-p272:64:64-i64:64-i128:128-f80:128-n8:16:32:64-S128"
target triple = "x86_64-pc-linux-gnu"

%struct.Abc_Frame_t_ = type { ptr, ptr, ptr, ptr, ptr, ptr, ptr, ptr, ptr, ptr, i32, i32, i32, i32, i32, ptr, float, float, i32, i32, ptr, ptr, ptr, double, double, ptr, ptr, ptr, ptr, ptr, ptr, ptr, ptr, ptr, ptr, ptr, ptr, float, ptr, i32, ptr, ptr, ptr, ptr, ptr, i32, i32, i32, i32, i32, i32, ptr, ptr, ptr, ptr, ptr, ptr, i32, i32, ptr, ptr, ptr, ptr, ptr, ptr, ptr, ptr, ptr, ptr, ptr, ptr, ptr, ptr, ptr, ptr, ptr, ptr, ptr, ptr, ptr, ptr, ptr, ptr, ptr, ptr, ptr, ptr, ptr, ptr }

@globalUtilOptind = external global i32, align 4
@.str.26 = private unnamed_addr constant [73 x i8] c"Command line switch \22-S\22 should be followed by a floating point number.\0A\00", align 1
@.str.27 = private unnamed_addr constant [73 x i8] c"Command line switch \22-G\22 should be followed by a floating point number.\0A\00", align 1
@.str.34 = private unnamed_addr constant [78 x i8] c"\09-S float : the slew parameter used to generate the library [default = %.2f]\0A\00", align 1
@.str.35 = private unnamed_addr constant [78 x i8] c"\09-G float : the gain parameter used to generate the library [default = %.2f]\0A\00", align 1
@.str.39 = private unnamed_addr constant [4 x i8] c"yes\00", align 1
@.str.40 = private unnamed_addr constant [3 x i8] c"no\00", align 1
@.str.54 = private unnamed_addr constant [40 x i8] c"There is no Liberty library available.\0A\00", align 1
@.str.61 = private unnamed_addr constant [6 x i8] c"SGish\00", align 1
@.str.62 = private unnamed_addr constant [37 x i8] c"usage: print_lib [-SG float] [-ish]\0A\00", align 1
@.str.63 = private unnamed_addr constant [50 x i8] c"\09           prints statistics of Liberty library\0A\00", align 1
@.str.64 = private unnamed_addr constant [59 x i8] c"\09-i       : toggle printing invs/bufs only [default = %s]\0A\00", align 1
@.str.65 = private unnamed_addr constant [60 x i8] c"\09-s       : toggle printing in short format [default = %s]\0A\00", align 1
@.str.66 = private unnamed_addr constant [36 x i8] c"\09-h       : print the help massage\0A\00", align 1

; Function Attrs: inlinehint nounwind willreturn memory(read) uwtable
define available_externally double @atof(ptr noundef nonnull %0) #7 {
  %2 = alloca ptr, align 8
  store ptr %0, ptr %2, align 8, !tbaa !56
  %3 = load ptr, ptr %2, align 8, !tbaa !56
  %4 = call double @strtod(ptr noundef %3, ptr noundef null) #12
  ret double %4
}

; Function Attrs: nounwind uwtable
define internal i32 @Scl_CommandPrintLib(ptr noundef %0, i32 noundef %1, ptr noundef %2) #0 {
  %4 = alloca i32, align 4
  %5 = alloca ptr, align 8
  %6 = alloca i32, align 4
  %7 = alloca ptr, align 8
  %8 = alloca float, align 4
  %9 = alloca float, align 4
  %10 = alloca i32, align 4
  %11 = alloca i32, align 4
  %12 = alloca i32, align 4
  %13 = alloca i32, align 4
  store ptr %0, ptr %5, align 8, !tbaa !3
  store i32 %1, ptr %6, align 4, !tbaa !29
  store ptr %2, ptr %7, align 8, !tbaa !50
  call void @llvm.lifetime.start.p0(i64 4, ptr %8) #12
  store float 0.000000e+00, ptr %8, align 4, !tbaa !52
  call void @llvm.lifetime.start.p0(i64 4, ptr %9) #12
  store float 1.000000e+02, ptr %9, align 4, !tbaa !52
  call void @llvm.lifetime.start.p0(i64 4, ptr %10) #12
  store i32 0, ptr %10, align 4, !tbaa !29
  call void @llvm.lifetime.start.p0(i64 4, ptr %11) #12
  store i32 0, ptr %11, align 4, !tbaa !29
  call void @llvm.lifetime.start.p0(i64 4, ptr %12) #12
  call void (...) @Extra_UtilGetoptReset()
  br label %14

14:                                               ; preds = %69, %3
  %15 = load i32, ptr %6, align 4, !tbaa !29
  %16 = load ptr, ptr %7, align 8, !tbaa !50
  %17 = call i32 @Extra_UtilGetopt(i32 noundef %15, ptr noundef %16, ptr noundef @.str.61)
  store i32 %17, ptr %12, align 4, !tbaa !29
  %18 = icmp ne i32 %17, -1
  br i1 %18, label %19, label %70

19:                                               ; preds = %14
  %20 = load i32, ptr %12, align 4, !tbaa !29
  switch i32 %20, label %68 [
    i32 83, label %21
    i32 71, label %41
    i32 105, label %61
    i32 115, label %64
    i32 104, label %67
  ]

21:                                               ; preds = %19
  %22 = load i32, ptr @globalUtilOptind, align 4, !tbaa !29
  %23 = load i32, ptr %6, align 4, !tbaa !29
  %24 = icmp sge i32 %22, %23
  br i1 %24, label %25, label %26

25:                                               ; preds = %21
  call void (i32, ptr, ...) @Abc_Print(i32 noundef -1, ptr noundef @.str.26)
  br label %88

26:                                               ; preds = %21
  %27 = load ptr, ptr %7, align 8, !tbaa !50
  %28 = load i32, ptr @globalUtilOptind, align 4, !tbaa !29
  %29 = sext i32 %28 to i64
  %30 = getelementptr inbounds ptr, ptr %27, i64 %29
  %31 = load ptr, ptr %30, align 8, !tbaa !56
  %32 = call double @atof(ptr noundef %31) #14
  %33 = fptrunc double %32 to float
  store float %33, ptr %8, align 4, !tbaa !52
  %34 = load i32, ptr @globalUtilOptind, align 4, !tbaa !29
  %35 = add nsw i32 %34, 1
  store i32 %35, ptr @globalUtilOptind, align 4, !tbaa !29
  %36 = load float, ptr %8, align 4, !tbaa !52
  %37 = fpext float %36 to double
  %38 = fcmp ole double %37, 0.000000e+00
  br i1 %38, label %39, label %40

39:                                               ; preds = %26
  br label %88

40:                                               ; preds = %26
  br label %69

41:                                               ; preds = %19
  %42 = load i32, ptr @globalUtilOptind, align 4, !tbaa !29
  %43 = load i32, ptr %6, align 4, !tbaa !29
  %44 = icmp sge i32 %42, %43
  br i1 %44, label %45, label %46

45:                                               ; preds = %41
  call void (i32, ptr, ...) @Abc_Print(i32 noundef -1, ptr noundef @.str.27)
  br label %88

46:                                               ; preds = %41
  %47 = load ptr, ptr %7, align 8, !tbaa !50
  %48 = load i32, ptr @globalUtilOptind, align 4, !tbaa !29
  %49 = sext i32 %48 to i64
  %50 = getelementptr inbounds ptr, ptr %47, i64 %49
  %51 = load ptr, ptr %50, align 8, !tbaa !56
  %52 = call double @atof(ptr noundef %51) #14
  %53 = fptrunc double %52 to float
  store float %53, ptr %9, align 4, !tbaa !52
  %54 = load i32, ptr @globalUtilOptind, align 4, !tbaa !29
  %55 = add nsw i32 %54, 1
  store i32 %55, ptr @globalUtilOptind, align 4, !tbaa !29
  %56 = load float, ptr %9, align 4, !tbaa !52
  %57 = fpext float %56 to double
  %58 = fcmp ole double %57, 0.000000e+00
  br i1 %58, label %59, label %60

59:                                               ; preds = %46
  br label %88

60:                                               ; preds = %46
  br label %69

61:                                               ; preds = %19
  %62 = load i32, ptr %10, align 4, !tbaa !29
  %63 = xor i32 %62, 1
  store i32 %63, ptr %10, align 4, !tbaa !29
  br label %69

64:                                               ; preds = %19
  %65 = load i32, ptr %11, align 4, !tbaa !29
  %66 = xor i32 %65, 1
  store i32 %66, ptr %11, align 4, !tbaa !29
  br label %69

67:                                               ; preds = %19
  br label %88

68:                                               ; preds = %19
  br label %88

69:                                               ; preds = %64, %61, %60, %40
  br label %14, !llvm.loop !64

70:                                               ; preds = %14
  %71 = load ptr, ptr %5, align 8, !tbaa !3
  %72 = getelementptr inbounds nuw %struct.Abc_Frame_t_, ptr %71, i32 0, i32 34
  %73 = load ptr, ptr %72, align 8, !tbaa !58
  %74 = icmp eq ptr %73, null
  br i1 %74, label %75, label %80

75:                                               ; preds = %70
  %76 = load ptr, ptr %5, align 8, !tbaa !3
  %77 = getelementptr inbounds nuw %struct.Abc_Frame_t_, ptr %76, i32 0, i32 21
  %78 = load ptr, ptr %77, align 8, !tbaa !59
  %79 = call i32 (ptr, ptr, ...) @fprintf(ptr noundef %78, ptr noundef @.str.54) #12
  store i32 1, ptr %4, align 4
  store i32 1, ptr %13, align 4
  br label %127

80:                                               ; preds = %70
  %81 = load ptr, ptr %5, align 8, !tbaa !3
  %82 = getelementptr inbounds nuw %struct.Abc_Frame_t_, ptr %81, i32 0, i32 34
  %83 = load ptr, ptr %82, align 8, !tbaa !58
  %84 = load float, ptr %8, align 4, !tbaa !52
  %85 = load float, ptr %9, align 4, !tbaa !52
  %86 = load i32, ptr %10, align 4, !tbaa !29
  %87 = load i32, ptr %11, align 4, !tbaa !29
  call void @Abc_SclPrintCells(ptr noundef %83, float noundef %84, float noundef %85, i32 noundef %86, i32 noundef %87)
  store i32 0, ptr %4, align 4
  store i32 1, ptr %13, align 4
  br label %127

88:                                               ; preds = %68, %67, %59, %45, %39, %25
  %89 = load ptr, ptr %5, align 8, !tbaa !3
  %90 = getelementptr inbounds nuw %struct.Abc_Frame_t_, ptr %89, i32 0, i32 21
  %91 = load ptr, ptr %90, align 8, !tbaa !59
  %92 = call i32 (ptr, ptr, ...) @fprintf(ptr noundef %91, ptr noundef @.str.62) #12
  %93 = load ptr, ptr %5, align 8, !tbaa !3
  %94 = getelementptr inbounds nuw %struct.Abc_Frame_t_, ptr %93, i32 0, i32 21
  %95 = load ptr, ptr %94, align 8, !tbaa !59
  %96 = call i32 (ptr, ptr, ...) @fprintf(ptr noundef %95, ptr noundef @.str.63) #12
  %97 = load ptr, ptr %5, align 8, !tbaa !3
  %98 = getelementptr inbounds nuw %struct.Abc_Frame_t_, ptr %97, i32 0, i32 21
  %99 = load ptr, ptr %98, align 8, !tbaa !59
  %100 = load float, ptr %8, align 4, !tbaa !52
  %101 = fpext float %100 to double
  %102 = call i32 (ptr, ptr, ...) @fprintf(ptr noundef %99, ptr noundef @.str.34, double noundef %101) #12
  %103 = load ptr, ptr %5, align 8, !tbaa !3
  %104 = getelementptr inbounds nuw %struct.Abc_Frame_t_, ptr %103, i32 0, i32 21
  %105 = load ptr, ptr %104, align 8, !tbaa !59
  %106 = load float, ptr %9, align 4, !tbaa !52
  %107 = fpext float %106 to double
  %108 = call i32 (ptr, ptr, ...) @fprintf(ptr noundef %105, ptr noundef @.str.35, double noundef %107) #12
  %109 = load ptr, ptr %5, align 8, !tbaa !3
  %110 = getelementptr inbounds nuw %struct.Abc_Frame_t_, ptr %109, i32 0, i32 21
  %111 = load ptr, ptr %110, align 8, !tbaa !59
  %112 = load i32, ptr %10, align 4, !tbaa !29
  %113 = icmp ne i32 %112, 0
  %114 = select i1 %113, ptr @.str.39, ptr @.str.40
  %115 = call i32 (ptr, ptr, ...) @fprintf(ptr noundef %111, ptr noundef @.str.64, ptr noundef %114) #12
  %116 = load ptr, ptr %5, align 8, !tbaa !3
  %117 = getelementptr inbounds nuw %struct.Abc_Frame_t_, ptr %116, i32 0, i32 21
  %118 = load ptr, ptr %117, align 8, !tbaa !59
  %119 = load i32, ptr %11, align 4, !tbaa !29
  %120 = icmp ne i32 %119, 0
  %121 = select i1 %120, ptr @.str.39, ptr @.str.40
  %122 = call i32 (ptr, ptr, ...) @fprintf(ptr noundef %118, ptr noundef @.str.65, ptr noundef %121) #12
  %123 = load ptr, ptr %5, align 8, !tbaa !3
  %124 = getelementptr inbounds nuw %struct.Abc_Frame_t_, ptr %123, i32 0, i32 21
  %125 = load ptr, ptr %124, align 8, !tbaa !59
  %126 = call i32 (ptr, ptr, ...) @fprintf(ptr noundef %125, ptr noundef @.str.66) #12
  store i32 1, ptr %4, align 4
  store i32 1, ptr %13, align 4
  br label %127

127:                                              ; preds = %88, %80, %75
  call void @llvm.lifetime.end.p0(i64 4, ptr %12) #12
  call void @llvm.lifetime.end.p0(i64 4, ptr %11) #12
  call void @llvm.lifetime.end.p0(i64 4, ptr %10) #12
  call void @llvm.lifetime.end.p0(i64 4, ptr %9) #12
  call void @llvm.lifetime.end.p0(i64 4, ptr %8) #12
  %128 = load i32, ptr %4, align 4
  ret i32 %128
}