; Function Attrs: nounwind uwtable
define internal range(i32 0, 2) i32 @Scl_CommandPrintLib(ptr noundef readonly captures(none) %0, i32 noundef %1, ptr noundef %2) #0 {
  tail call void (...) @Extra_UtilGetoptReset() #12
  br label %.outer

.outer:                                           ; preds = %8, %3
  %.034.ph = phi float [ %13, %8 ], [ 0.000000e+00, %3 ]
  %.032.ph = phi float [ %.032.ph98, %8 ], [ 1.000000e+02, %3 ]
  %.030.ph = phi i32 [ %.030.ph102, %8 ], [ 0, %3 ]
  %.029.ph = phi i32 [ %.029, %8 ], [ 0, %3 ]
  br label %.outer97

.outer97:                                         ; preds = %.outer, %18
  %.032.ph98 = phi float [ %.032.ph, %.outer ], [ %23, %18 ]
  %.030.ph99 = phi i32 [ %.030.ph, %.outer ], [ %.030.ph102, %18 ]
  %.029.ph100 = phi i32 [ %.029.ph, %.outer ], [ %.029, %18 ]
  br label %.outer101

.outer101:                                        ; preds = %.outer97, %26
  %.030.ph102 = phi i32 [ %.030.ph99, %.outer97 ], [ %27, %26 ]
  %.029.ph103 = phi i32 [ %.029.ph100, %.outer97 ], [ %.029, %26 ]
  br label %4

4:                                                ; preds = %.outer101, %28
  %.029 = phi i32 [ %29, %28 ], [ %.029.ph103, %.outer101 ]
  %5 = tail call i32 @Extra_UtilGetopt(i32 noundef %1, ptr noundef %2, ptr noundef nonnull @.str.61) #12
  switch i32 %5, label %.loopexit [
    i32 -1, label %30
    i32 83, label %6
    i32 71, label %16
    i32 105, label %26
    i32 115, label %28
  ]

6:                                                ; preds = %4
  %7 = load i32, ptr @globalUtilOptind, align 4, !tbaa !81
  %.not42 = icmp slt i32 %7, %1
  br i1 %.not42, label %8, label %.loopexit.sink.split

8:                                                ; preds = %6
  %9 = sext i32 %7 to i64
  %10 = getelementptr inbounds ptr, ptr %2, i64 %9
  %11 = load ptr, ptr %10, align 8, !tbaa !82
  %12 = tail call double @strtod(ptr noundef nonnull captures(none) %11, ptr noundef null) #12
  %13 = fptrunc double %12 to float
  %14 = add nsw i32 %7, 1
  store i32 %14, ptr @globalUtilOptind, align 4, !tbaa !81
  %15 = fcmp ugt float %13, 0.000000e+00
  br i1 %15, label %.outer, label %.loopexit, !llvm.loop !88

16:                                               ; preds = %4
  %17 = load i32, ptr @globalUtilOptind, align 4, !tbaa !81
  %.not41 = icmp slt i32 %17, %1
  br i1 %.not41, label %18, label %.loopexit.sink.split

18:                                               ; preds = %16
  %19 = sext i32 %17 to i64
  %20 = getelementptr inbounds ptr, ptr %2, i64 %19
  %21 = load ptr, ptr %20, align 8, !tbaa !82
  %22 = tail call double @strtod(ptr noundef nonnull captures(none) %21, ptr noundef null) #12
  %23 = fptrunc double %22 to float
  %24 = add nsw i32 %17, 1
  store i32 %24, ptr @globalUtilOptind, align 4, !tbaa !81
  %25 = fcmp ugt float %23, 0.000000e+00
  br i1 %25, label %.outer97, label %.loopexit, !llvm.loop !88

26:                                               ; preds = %4
  %27 = xor i32 %.030.ph102, 1
  br label %.outer101, !llvm.loop !88

28:                                               ; preds = %4
  %29 = xor i32 %.029, 1
  br label %4, !llvm.loop !88

30:                                               ; preds = %4
  %31 = getelementptr inbounds nuw i8, ptr %0, i64 240
  %32 = load ptr, ptr %31, align 8, !tbaa !85
  %33 = icmp eq ptr %32, null
  br i1 %33, label %34, label %38

34:                                               ; preds = %30
  %35 = getelementptr inbounds nuw i8, ptr %0, i64 136
  %36 = load ptr, ptr %35, align 8, !tbaa !84
  %37 = tail call i64 @fwrite(ptr nonnull @.str.54, i64 39, i64 1, ptr %36)
  br label %58

38:                                               ; preds = %30
  tail call void @Abc_SclPrintCells(ptr noundef nonnull %32, float noundef %.034.ph, float noundef %.032.ph98, i32 noundef %.030.ph102, i32 noundef %.029) #12
  br label %58

.loopexit.sink.split:                             ; preds = %6, %16
  %.str.27.sink = phi ptr [ @.str.27, %16 ], [ @.str.26, %6 ]
  tail call void (i32, ptr, ...) @Abc_Print(i32 noundef -1, ptr noundef nonnull %.str.27.sink)
  br label %.loopexit

.loopexit:                                        ; preds = %18, %4, %8, %.loopexit.sink.split
  %.135 = phi float [ %.034.ph, %.loopexit.sink.split ], [ %.034.ph, %18 ], [ %.034.ph, %4 ], [ %13, %8 ]
  %.133 = phi float [ %.032.ph98, %.loopexit.sink.split ], [ %.032.ph98, %4 ], [ %23, %18 ], [ %.032.ph98, %8 ]
  %39 = getelementptr inbounds nuw i8, ptr %0, i64 136
  %40 = load ptr, ptr %39, align 8, !tbaa !84
  %41 = tail call i64 @fwrite(ptr nonnull @.str.62, i64 36, i64 1, ptr %40)
  %42 = load ptr, ptr %39, align 8, !tbaa !84
  %43 = tail call i64 @fwrite(ptr nonnull @.str.63, i64 49, i64 1, ptr %42)
  %44 = load ptr, ptr %39, align 8, !tbaa !84
  %45 = fpext float %.135 to double
  %46 = tail call i32 (ptr, ptr, ...) @fprintf(ptr noundef %44, ptr noundef nonnull @.str.34, double noundef %45) #12
  %47 = load ptr, ptr %39, align 8, !tbaa !84
  %48 = fpext float %.133 to double
  %49 = tail call i32 (ptr, ptr, ...) @fprintf(ptr noundef %47, ptr noundef nonnull @.str.35, double noundef %48) #12
  %50 = load ptr, ptr %39, align 8, !tbaa !84
  %.not43 = icmp eq i32 %.030.ph102, 0
  %51 = select i1 %.not43, ptr @.str.40, ptr @.str.39
  %52 = tail call i32 (ptr, ptr, ...) @fprintf(ptr noundef %50, ptr noundef nonnull @.str.64, ptr noundef nonnull %51) #12
  %53 = load ptr, ptr %39, align 8, !tbaa !84
  %.not44 = icmp eq i32 %.029, 0
  %54 = select i1 %.not44, ptr @.str.40, ptr @.str.39
  %55 = tail call i32 (ptr, ptr, ...) @fprintf(ptr noundef %53, ptr noundef nonnull @.str.65, ptr noundef nonnull %54) #12
  %56 = load ptr, ptr %39, align 8, !tbaa !84
  %57 = tail call i64 @fwrite(ptr nonnull @.str.66, i64 35, i64 1, ptr %56)
  br label %58

58:                                               ; preds = %.loopexit, %38, %34
  %.0 = phi i32 [ 1, %.loopexit ], [ 1, %34 ], [ 0, %38 ]
  ret i32 %.0
}